; Function Attrs: nounwind sspstrong uwtable
define dso_local range(i64 1, -7) i64 @rb_struct_s_members(i64 noundef %0) local_unnamed_addr #0 {
  %2 = load i64, ptr @id_members, align 8, !tbaa !7
  %3 = tail call i64 @rb_attr_get(i64 noundef %0, i64 noundef %2) #19
  %4 = icmp eq i64 %3, 4
  br i1 %4, label %.preheader.i, label %struct_ivar_get.exit.thread6

.preheader.i:                                     ; preds = %1, %12
  %.016.i = phi i64 [ %5, %12 ], [ %0, %1 ]
  %5 = tail call i64 @rb_class_superclass(i64 noundef %.016.i) #20
  %6 = load i64, ptr @rb_cStruct, align 8, !tbaa !7
  %7 = icmp ne i64 %5, %6
  %8 = load i64, ptr @rb_cData, align 8
  %9 = icmp ne i64 %5, %8
  %or.cond.not22.i = select i1 %7, i1 %9, i1 false
  %10 = and i64 %5, -5
  %11 = icmp ne i64 %10, 0
  %or.cond20.i = and i1 %11, %or.cond.not22.i
  br i1 %or.cond20.i, label %12, label %struct_ivar_get.exit.thread

12:                                               ; preds = %.preheader.i
  %13 = tail call i64 @rb_attr_get(i64 noundef %5, i64 noundef %2) #19
  %14 = icmp eq i64 %13, 4
  br i1 %14, label %.preheader.i, label %struct_ivar_get.exit

struct_ivar_get.exit:                             ; preds = %12
  %15 = tail call i64 @rb_ivar_set(i64 noundef %0, i64 noundef %2, i64 noundef %13) #19
  %16 = icmp eq i64 %15, 4
  br i1 %16, label %struct_ivar_get.exit.thread, label %struct_ivar_get.exit.thread6

struct_ivar_get.exit.thread:                      ; preds = %.preheader.i, %struct_ivar_get.exit
  %17 = load i64, ptr @rb_eTypeError, align 8, !tbaa !7
  tail call void (i64, ptr, ...) @rb_raise(i64 noundef %17, ptr noundef nonnull @.str) #21
  unreachable

struct_ivar_get.exit.thread6:                     ; preds = %1, %struct_ivar_get.exit
  %.0.i48 = phi i64 [ %15, %struct_ivar_get.exit ], [ %3, %1 ]
  %18 = icmp eq i64 %.0.i48, 0
  %19 = and i64 %.0.i48, 7
  %20 = icmp ne i64 %19, 0
  %21 = or i1 %18, %20
  br i1 %21, label %rbimpl_RB_TYPE_P_fastpath.exit.thread, label %rbimpl_RB_TYPE_P_fastpath.exit

rbimpl_RB_TYPE_P_fastpath.exit:                   ; preds = %struct_ivar_get.exit.thread6
  %22 = inttoptr i64 %.0.i48 to ptr
  %23 = load i64, ptr %22, align 8, !tbaa !11
  %24 = and i64 %23, 31
  %25 = icmp eq i64 %24, 7
  br i1 %25, label %27, label %rbimpl_RB_TYPE_P_fastpath.exit.thread

rbimpl_RB_TYPE_P_fastpath.exit.thread:            ; preds = %struct_ivar_get.exit.thread6, %rbimpl_RB_TYPE_P_fastpath.exit
  %26 = load i64, ptr @rb_eTypeError, align 8, !tbaa !7
  tail call void (i64, ptr, ...) @rb_raise(i64 noundef %26, ptr noundef nonnull @.str.1) #21
  unreachable

27:                                               ; preds = %rbimpl_RB_TYPE_P_fastpath.exit
  ret i64 %.0.i48
}